; Function Attrs: mustprogress ssp uwtable
define void @_ZN6open3d4core19MemoryManagerCached12ReleaseCacheERKNS0_6DeviceE(ptr noundef nonnull align 4 dereferenceable(8) %0) local_unnamed_addr #1 align 2 {
  %2 = tail call noundef nonnull align 8 dereferenceable(8) ptr @_ZN6open3d7utility6Logger11GetInstanceEv()
  %3 = load atomic i8, ptr @_ZGVZN6open3d4core6Cacher11GetInstanceEvE8instance acquire, align 8
  %4 = icmp eq i8 %3, 0
  br i1 %4, label %5, label %_ZN6open3d4core6Cacher11GetInstanceEv.exit, !prof !19

5:                                                ; preds = %1
  %6 = tail call i32 @__cxa_guard_acquire(ptr nonnull @_ZGVZN6open3d4core6Cacher11GetInstanceEvE8instance) #31
  %.not.i = icmp eq i32 %6, 0
  br i1 %.not.i, label %_ZN6open3d4core6Cacher11GetInstanceEv.exit, label %7

7:                                                ; preds = %5
  store ptr getelementptr inbounds nuw (i8, ptr @_ZZN6open3d4core6Cacher11GetInstanceEvE8instance, i64 48), ptr @_ZZN6open3d4core6Cacher11GetInstanceEvE8instance, align 8, !tbaa !20
  store i64 1, ptr getelementptr inbounds nuw (i8, ptr @_ZZN6open3d4core6Cacher11GetInstanceEvE8instance, i64 8), align 8, !tbaa !29
  tail call void @llvm.memset.p0.i64(ptr noundef nonnull align 8 dereferenceable(16) getelementptr inbounds nuw (i8, ptr @_ZZN6open3d4core6Cacher11GetInstanceEvE8instance, i64 16), i8 0, i64 16, i1 false)
  store float 1.000000e+00, ptr getelementptr inbounds nuw (i8, ptr @_ZZN6open3d4core6Cacher11GetInstanceEvE8instance, i64 32), align 8, !tbaa !30
  tail call void @llvm.memset.p0.i64(ptr noundef nonnull align 8 dereferenceable(56) getelementptr inbounds nuw (i8, ptr @_ZZN6open3d4core6Cacher11GetInstanceEvE8instance, i64 40), i8 0, i64 56, i1 false)
  store i32 1, ptr getelementptr inbounds nuw (i8, ptr @_ZZN6open3d4core6Cacher11GetInstanceEvE8instance, i64 72), align 8, !tbaa !31
  %8 = tail call i32 @__cxa_atexit(ptr nonnull @_ZN6open3d4core6CacherD2Ev, ptr nonnull @_ZZN6open3d4core6Cacher11GetInstanceEvE8instance, ptr nonnull @__dso_handle) #31
  tail call void @__cxa_guard_release(ptr nonnull @_ZGVZN6open3d4core6Cacher11GetInstanceEvE8instance) #31
  br label %_ZN6open3d4core6Cacher11GetInstanceEv.exit

_ZN6open3d4core6Cacher11GetInstanceEv.exit:       ; preds = %1, %5, %7
  tail call void @_ZN6open3d4core6Cacher5ClearERKNS0_6DeviceE(ptr noundef nonnull align 8 dereferenceable(96) @_ZZN6open3d4core6Cacher11GetInstanceEvE8instance, ptr noundef nonnull align 4 dereferenceable(8) %0)
  ret void
}